; Function Attrs: mustprogress nounwind uwtable
define hidden void @_ZN6google8protobuf8internal12MapFieldBaseD2Ev(ptr noundef nonnull align 8 captures(none) dereferenceable(68) initializes((0, 8)) %0) unnamed_addr #11 align 2 personality ptr @__gxx_personality_v0 {
  store ptr getelementptr inbounds nuw inrange(-16, 168) (i8, ptr @_ZTVN6google8protobuf8internal12MapFieldBaseE, i64 16), ptr %0, align 8, !tbaa !15
  %2 = getelementptr inbounds nuw i8, ptr %0, i64 16
  %3 = load ptr, ptr %2, align 8, !tbaa !3
  %.not = icmp ne ptr %3, null
  %4 = getelementptr inbounds nuw i8, ptr %0, i64 8
  %5 = load ptr, ptr %4, align 8
  %6 = icmp eq ptr %5, null
  %or.cond = select i1 %.not, i1 %6, i1 false
  br i1 %or.cond, label %7, label %17

7:                                                ; preds = %1
  %8 = getelementptr inbounds nuw i8, ptr %3, i64 16
  %9 = load ptr, ptr %8, align 8, !tbaa !26
  %.not.i.i = icmp ne ptr %9, null
  %10 = load ptr, ptr %3, align 8
  %11 = icmp eq ptr %10, null
  %12 = select i1 %.not.i.i, i1 %11, i1 false
  br i1 %12, label %13, label %_ZN6google8protobuf16RepeatedPtrFieldINS0_7MessageEED2Ev.exit

13:                                               ; preds = %7
  invoke void @_ZN6google8protobuf8internal20RepeatedPtrFieldBase13DestroyProtosEv(ptr noundef nonnull align 8 dereferenceable(24) %3)
          to label %_ZN6google8protobuf16RepeatedPtrFieldINS0_7MessageEED2Ev.exit unwind label %14

14:                                               ; preds = %13
  %15 = landingpad { ptr, i32 }
          catch ptr null
  %16 = extractvalue { ptr, i32 } %15, 0
  tail call void @__clang_call_terminate(ptr %16) #28
  unreachable

_ZN6google8protobuf16RepeatedPtrFieldINS0_7MessageEED2Ev.exit: ; preds = %7, %13
  tail call void @_ZdlPv(ptr noundef nonnull %3) #32
  br label %17

17:                                               ; preds = %_ZN6google8protobuf16RepeatedPtrFieldINS0_7MessageEED2Ev.exit, %1
  ret void
}